; Function Attrs: cold mustprogress noreturn sspstrong uwtable
define internal fastcc void @"_ZN3tbb6detail2r18do_throwIZNS1_15throw_exceptionENS0_2d012exception_idEE3$_2EEvT_"() unnamed_addr #5 personality ptr @__gxx_personality_v0 {
  %1 = tail call noundef zeroext i1 @_ZN3tbb6detail2r122terminate_on_exceptionEv()
  br i1 %1, label %2, label %6

2:                                                ; preds = %0
  invoke fastcc void @"_ZZN3tbb6detail2r115throw_exceptionENS0_2d012exception_idEENK3$_2clEv"()
          to label %.unreachable.i unwind label %3

.unreachable.i:                                   ; preds = %2
  unreachable

3:                                                ; preds = %2
  %4 = landingpad { ptr, i32 }
          catch ptr null
  %5 = extractvalue { ptr, i32 } %4, 0
  tail call void @__clang_call_terminate(ptr %5) #17
  unreachable

6:                                                ; preds = %0
  tail call fastcc void @"_ZZN3tbb6detail2r115throw_exceptionENS0_2d012exception_idEENK3$_2clEv"()
  unreachable
}